	.file	"simplesync.c"
	.text
.Ltext0:
	.section	.rodata.str1.8,"aMS",@progbits,1
	.align 8
.LC0:
	.string	"About to increase variable %d times\n"
	.section	.rodata.str1.1,"aMS",@progbits,1
.LC1:
	.string	"Done increasing variable.\n"
	.text
	.p2align 4,,15
	.globl	increase_fn
	.type	increase_fn, @function
increase_fn:
.LFB52:
	.file 1 "simplesync.c"
	.loc 1 43 0
	.cfi_startproc
.LVL0:
	subq	$24, %rsp
	.cfi_def_cfa_offset 32
.LBB14:
.LBB15:
	.file 2 "/usr/include/x86_64-linux-gnu/bits/stdio2.h"
	.loc 2 79 0
	leaq	.LC0(%rip), %rdx
	movl	$10000000, %ecx
.LBE15:
.LBE14:
	.loc 1 45 0
	movq	%rdi, (%rsp)
.LVL1:
.LBB18:
.LBB16:
	.loc 2 79 0
	movq	stderr(%rip), %rdi
.LVL2:
	movl	$1, %esi
.LBE16:
.LBE18:
	.loc 1 43 0
	movq	%fs:40, %rax
	movq	%rax, 8(%rsp)
	xorl	%eax, %eax
.LBB19:
.LBB17:
	.loc 2 79 0
	call	__fprintf_chk@PLT
.LVL3:
	movl	$10000000, %eax
.LVL4:
	.p2align 4,,10
	.p2align 3
.L2:
.LBE17:
.LBE19:
	.loc 1 52 0
	lock addq	$1, (%rsp)
.LVL5:
	.loc 1 48 0
	subl	$1, %eax
.LVL6:
	jne	.L2
.LVL7:
.LBB20:
.LBB21:
	.loc 2 79 0
	movq	stderr(%rip), %rcx
	leaq	.LC1(%rip), %rdi
	movl	$26, %edx
	movl	$1, %esi
	call	fwrite@PLT
.LVL8:
.LBE21:
.LBE20:
	.loc 1 66 0
	xorl	%eax, %eax
	movq	8(%rsp), %rdx
	xorq	%fs:40, %rdx
	jne	.L7
	addq	$24, %rsp
	.cfi_remember_state
	.cfi_def_cfa_offset 8
	ret
.L7:
	.cfi_restore_state
	call	__stack_chk_fail@PLT
.LVL9:
	.cfi_endproc
.LFE52:
	.size	increase_fn, .-increase_fn
	.section	.rodata.str1.8
	.align 8
.LC2:
	.string	"About to decrease variable %d times\n"
	.section	.rodata.str1.1
.LC3:
	.string	"Done decreasing variable.\n"
	.text
	.p2align 4,,15
	.globl	decrease_fn
	.type	decrease_fn, @function
decrease_fn:
.LFB53:
	.loc 1 69 0
	.cfi_startproc
.LVL10:
	subq	$24, %rsp
	.cfi_def_cfa_offset 32
.LBB22:
.LBB23:
	.loc 2 79 0
	leaq	.LC2(%rip), %rdx
	movl	$10000000, %ecx
.LBE23:
.LBE22:
	.loc 1 71 0
	movq	%rdi, (%rsp)
.LVL11:
.LBB26:
.LBB24:
	.loc 2 79 0
	movq	stderr(%rip), %rdi
.LVL12:
	movl	$1, %esi
.LBE24:
.LBE26:
	.loc 1 69 0
	movq	%fs:40, %rax
	movq	%rax, 8(%rsp)
	xorl	%eax, %eax
.LBB27:
.LBB25:
	.loc 2 79 0
	call	__fprintf_chk@PLT
.LVL13:
	movl	$10000000, %eax
.LVL14:
	.p2align 4,,10
	.p2align 3
.L9:
.LBE25:
.LBE27:
	.loc 1 78 0
	lock subq	$1, (%rsp)
.LVL15:
	.loc 1 74 0
	subl	$1, %eax
.LVL16:
	jne	.L9
.LVL17:
.LBB28:
.LBB29:
	.loc 2 79 0
	movq	stderr(%rip), %rcx
	leaq	.LC3(%rip), %rdi
	movl	$26, %edx
	movl	$1, %esi
	call	fwrite@PLT
.LVL18:
.LBE29:
.LBE28:
	.loc 1 92 0
	xorl	%eax, %eax
	movq	8(%rsp), %rdx
	xorq	%fs:40, %rdx
	jne	.L13
	addq	$24, %rsp
	.cfi_remember_state
	.cfi_def_cfa_offset 8
	ret
.L13:
	.cfi_restore_state
	call	__stack_chk_fail@PLT
.LVL19:
	.cfi_endproc
.LFE53:
	.size	decrease_fn, .-decrease_fn
	.section	.rodata.str1.1
.LC4:
	.string	""
.LC5:
	.string	"NOT "
.LC6:
	.string	"\n mutex init has failed"
.LC7:
	.string	"pthread_create"
.LC8:
	.string	"pthread_join"
.LC9:
	.string	"%sOK, val = %d.\n"
	.section	.text.startup,"ax",@progbits
	.p2align 4,,15
	.globl	main
	.type	main, @function
main:
.LFB54:
	.loc 1 96 0
	.cfi_startproc
.LVL20:
	pushq	%rbp
	.cfi_def_cfa_offset 16
	.cfi_offset 6, -16
	pushq	%rbx
	.cfi_def_cfa_offset 24
	.cfi_offset 3, -24
	.loc 1 108 0
	leaq	lock(%rip), %rdi
.LVL21:
	xorl	%esi, %esi
.LVL22:
	.loc 1 96 0
	subq	$40, %rsp
	.cfi_def_cfa_offset 64
	.loc 1 96 0
	movq	%fs:40, %rax
	movq	%rax, 24(%rsp)
	xorl	%eax, %eax
	.loc 1 103 0
	movl	$0, 4(%rsp)
	.loc 1 108 0
	call	pthread_mutex_init@PLT
.LVL23:
	testl	%eax, %eax
	jne	.L31
	.loc 1 112 0
	leaq	4(%rsp), %rbx
	leaq	8(%rsp), %rdi
	leaq	increase_fn(%rip), %rdx
	xorl	%esi, %esi
	movq	%rbx, %rcx
	call	pthread_create@PLT
.LVL24:
	.loc 1 113 0
	testl	%eax, %eax
	.loc 1 112 0
	movl	%eax, %ebp
.LVL25:
	.loc 1 113 0
	jne	.L32
	.loc 1 117 0
	leaq	16(%rsp), %rdi
	leaq	decrease_fn(%rip), %rdx
	movq	%rbx, %rcx
	xorl	%esi, %esi
	call	pthread_create@PLT
.LVL26:
	.loc 1 118 0
	testl	%eax, %eax
	.loc 1 117 0
	movl	%eax, %ebx
.LVL27:
	.loc 1 118 0
	jne	.L33
	.loc 1 126 0
	movq	8(%rsp), %rdi
	xorl	%esi, %esi
	call	pthread_join@PLT
.LVL28:
	.loc 1 127 0
	testl	%eax, %eax
	.loc 1 126 0
	movl	%eax, %ebx
.LVL29:
	.loc 1 127 0
	jne	.L34
.LVL30:
.L19:
	.loc 1 129 0
	movq	16(%rsp), %rdi
	xorl	%esi, %esi
	call	pthread_join@PLT
.LVL31:
	.loc 1 130 0
	testl	%eax, %eax
	.loc 1 129 0
	movl	%eax, %ebx
.LVL32:
	.loc 1 130 0
	jne	.L35
.LVL33:
.L20:
	.loc 1 133 0
	leaq	lock(%rip), %rdi
	.loc 1 138 0
	xorl	%ebx, %ebx
.LVL34:
	.loc 1 133 0
	call	pthread_mutex_destroy@PLT
.LVL35:
	.loc 1 138 0
	movl	4(%rsp), %ecx
	.loc 1 140 0
	leaq	.LC5(%rip), %rax
	leaq	.LC4(%rip), %rdx
.LBB30:
.LBB31:
	.loc 2 86 0
	leaq	.LC9(%rip), %rsi
	movl	$1, %edi
.LBE31:
.LBE30:
	.loc 1 138 0
	testl	%ecx, %ecx
	sete	%bl
.LVL36:
	.loc 1 140 0
	cmovne	%rax, %rdx
.LVL37:
.LBB33:
.LBB32:
	.loc 2 86 0
	xorl	%eax, %eax
	call	__printf_chk@PLT
.LVL38:
.L14:
.LBE32:
.LBE33:
	.loc 1 143 0
	movq	24(%rsp), %rsi
	xorq	%fs:40, %rsi
	movl	%ebx, %eax
	jne	.L36
	addq	$40, %rsp
	.cfi_remember_state
	.cfi_def_cfa_offset 24
	popq	%rbx
	.cfi_def_cfa_offset 16
	popq	%rbp
	.cfi_def_cfa_offset 8
	ret
.L31:
	.cfi_restore_state
.LVL39:
.LBB34:
.LBB35:
	.loc 2 86 0
	leaq	.LC6(%rip), %rdi
.LBE35:
.LBE34:
	.loc 1 110 0
	movl	$1, %ebx
.LBB37:
.LBB36:
	.loc 2 86 0
	call	puts@PLT
.LVL40:
.LBE36:
.LBE37:
	.loc 1 110 0
	jmp	.L14
.LVL41:
.L35:
	.loc 1 131 0
	call	__errno_location@PLT
.LVL42:
	leaq	.LC8(%rip), %rdi
	movl	%ebx, (%rax)
	call	perror@PLT
.LVL43:
	jmp	.L20
.LVL44:
.L34:
	.loc 1 128 0
	call	__errno_location@PLT
.LVL45:
	leaq	.LC8(%rip), %rdi
	movl	%ebx, (%rax)
	call	perror@PLT
.LVL46:
	jmp	.L19
.LVL47:
.L36:
	.loc 1 143 0
	call	__stack_chk_fail@PLT
.LVL48:
.L33:
	.loc 1 119 0
	call	__errno_location@PLT
.LVL49:
	leaq	.LC7(%rip), %rdi
	movl	%ebx, (%rax)
	call	perror@PLT
.LVL50:
	.loc 1 120 0
	movl	$1, %edi
	call	exit@PLT
.LVL51:
.L32:
	.loc 1 114 0
	call	__errno_location@PLT
.LVL52:
	leaq	.LC7(%rip), %rdi
	movl	%ebp, (%rax)
	call	perror@PLT
.LVL53:
	.loc 1 115 0
	movl	$1, %edi
	call	exit@PLT
.LVL54:
	.cfi_endproc
.LFE54:
	.size	main, .-main
	.comm	lock,40,32
	.text
.Letext0:
	.file 3 "/usr/lib/gcc/x86_64-linux-gnu/6/include/stddef.h"
	.file 4 "/usr/include/x86_64-linux-gnu/bits/types.h"
	.file 5 "/usr/include/x86_64-linux-gnu/bits/types/struct_FILE.h"
	.file 6 "/usr/include/x86_64-linux-gnu/bits/types/FILE.h"
	.file 7 "/usr/include/stdio.h"
	.file 8 "/usr/include/x86_64-linux-gnu/bits/thread-shared-types.h"
	.file 9 "/usr/include/x86_64-linux-gnu/bits/struct_mutex.h"
	.file 10 "/usr/include/x86_64-linux-gnu/bits/pthreadtypes.h"
	.file 11 "/usr/include/unistd.h"
	.file 12 "/usr/include/x86_64-linux-gnu/bits/getopt_core.h"
	.file 13 "/usr/include/time.h"
	.file 14 "/usr/include/x86_64-linux-gnu/bits/stdio2-decl.h"
	.file 15 "/usr/include/pthread.h"
	.file 16 "/usr/include/errno.h"
	.file 17 "/usr/include/stdlib.h"
	.file 18 "<built-in>"
	.section	.note.GNU-stack,"",@progbits
